; Function Attrs: mustprogress nofree norecurse nosync nounwind willreturn memory(argmem: read) uwtable
define hidden noundef zeroext i1 @_ZN10duckdb_re216CharClassBuilder10FoldsASCIIEv(ptr noundef nonnull readonly align 8 captures(none) dereferenceable(64) %0) local_unnamed_addr #13 align 2 {
  %2 = load i32, ptr %0, align 8, !tbaa !124
  %3 = getelementptr inbounds nuw i8, ptr %0, i64 4
  %4 = load i32, ptr %3, align 4, !tbaa !125
  %5 = xor i32 %4, %2
  %6 = and i32 %5, 67108863
  %7 = icmp eq i32 %6, 0
  ret i1 %7
}